; Function Attrs: mustprogress uwtable
define noundef double @_ZNK8QuantLib21ProjectedCostFunction5valueERKNS_5ArrayE(ptr noundef nonnull align 8 dereferenceable(104) %this, ptr noundef nonnull align 8 dereferenceable(16) %freeParameters) unnamed_addr #0 align 2 {
entry:
  %add.ptr = getelementptr inbounds i8, ptr %this, i64 8
  tail call void @_ZNK8QuantLib10Projection17mapFreeParametersERKNS_5ArrayE(ptr noundef nonnull align 8 dereferenceable(88) %add.ptr, ptr noundef nonnull align 8 dereferenceable(16) %freeParameters)
  %costFunction_ = getelementptr inbounds nuw i8, ptr %this, i64 96
  %0 = load ptr, ptr %costFunction_, align 8, !tbaa !33
  %actualParameters_ = getelementptr inbounds i8, ptr %this, i64 40
  %vtable = load ptr, ptr %0, align 8, !tbaa !3
  %vfn = getelementptr inbounds i8, ptr %vtable, i64 16
  %1 = load ptr, ptr %vfn, align 8
  %call = tail call noundef double %1(ptr noundef nonnull align 8 dereferenceable(8) %0, ptr noundef nonnull align 8 dereferenceable(16) %actualParameters_)
  ret double %call
}